; Function Attrs: mustprogress nofree norecurse nosync nounwind willreturn memory(read, inaccessiblemem: none) uwtable
define noundef range(i32 -2147483648, 2147483647) i32 @_Z19tMPI_Comm_seek_rankP10tmpi_comm_P11tmpi_thread(ptr noundef readonly %0, ptr noundef readnone %1) local_unnamed_addr #6 {
  %.not = icmp eq ptr %0, null
  br i1 %.not, label %.loopexit, label %.preheader

.preheader:                                       ; preds = %2
  %3 = load i32, ptr %0, align 8, !tbaa !3
  %4 = icmp sgt i32 %3, 0
  br i1 %4, label %.lr.ph, label %.loopexit

.lr.ph:                                           ; preds = %.preheader
  %5 = getelementptr inbounds nuw i8, ptr %0, i64 8
  %6 = load ptr, ptr %5, align 8, !tbaa !29
  %wide.trip.count = zext nneg i32 %3 to i64
  br label %7

7:                                                ; preds = %.lr.ph, %11
  %indvars.iv = phi i64 [ 0, %.lr.ph ], [ %indvars.iv.next, %11 ]
  %8 = getelementptr inbounds nuw ptr, ptr %6, i64 %indvars.iv
  %9 = load ptr, ptr %8, align 8, !tbaa !30
  %10 = icmp eq ptr %9, %1
  br i1 %10, label %.loopexit.loopexit.split.loop.exit14, label %11

11:                                               ; preds = %7
  %indvars.iv.next = add nuw nsw i64 %indvars.iv, 1
  %exitcond.not = icmp eq i64 %indvars.iv.next, %wide.trip.count
  br i1 %exitcond.not, label %.loopexit, label %7, !llvm.loop !60

.loopexit.loopexit.split.loop.exit14:             ; preds = %7
  %12 = trunc nuw nsw i64 %indvars.iv to i32
  br label %.loopexit

.loopexit:                                        ; preds = %11, %.loopexit.loopexit.split.loop.exit14, %.preheader, %2
  %.08 = phi i32 [ -1, %2 ], [ -1, %.preheader ], [ %12, %.loopexit.loopexit.split.loop.exit14 ], [ -1, %11 ]
  ret i32 %.08
}